; ModuleID = 'bench/csmith/original/CFGEdge.ll'
source_filename = "bench/csmith/original/CFGEdge.ll"
target datalayout = "e-m:e-p270:32:32-p271:32:32-p272:64:64-i64:64-i128:128-f80:128-n8:16:32:64-S128"
target triple = "x86_64-pc-linux-gnu"

%"class.std::ios_base::Init" = type { i8 }

@_ZStL8__ioinit = internal global %"class.std::ios_base::Init" zeroinitializer, align 1
@__dso_handle = external hidden global i8
@_ZTV7CFGEdge = dso_local unnamed_addr constant { [4 x ptr] } { [4 x ptr] [ptr null, ptr @_ZTI7CFGEdge, ptr @_ZN7CFGEdgeD2Ev, ptr @_ZN7CFGEdgeD0Ev] }, align 8
@_ZTI7CFGEdge = dso_local constant { ptr, ptr } { ptr getelementptr inbounds (ptr, ptr @_ZTVN10__cxxabiv117__class_type_infoE, i64 2), ptr @_ZTS7CFGEdge }, align 8
@_ZTVN10__cxxabiv117__class_type_infoE = external global [0 x ptr]
@_ZTS7CFGEdge = dso_local constant [9 x i8] c"7CFGEdge\00", align 1
@llvm.global_ctors = appending global [1 x { i32, ptr, ptr }] [{ i32, ptr, ptr } { i32 65535, ptr @_GLOBAL__sub_I_CFGEdge.cpp, ptr null }]

@_ZN7CFGEdgeC1EPK9StatementS2_bb = dso_local unnamed_addr alias void (ptr, ptr, ptr, i1, i1), ptr @_ZN7CFGEdgeC2EPK9StatementS2_bb
@_ZN7CFGEdgeC1ERKS_ = dso_local unnamed_addr alias void (ptr, ptr), ptr @_ZN7CFGEdgeC2ERKS_
@_ZN7CFGEdgeD1Ev = dso_local unnamed_addr alias void (ptr), ptr @_ZN7CFGEdgeD2Ev

declare void @_ZNSt8ios_base4InitC1Ev(ptr noundef nonnull align 1 dereferenceable(1)) unnamed_addr #0

; Function Attrs: nounwind
declare void @_ZNSt8ios_base4InitD1Ev(ptr noundef nonnull align 1 dereferenceable(1)) unnamed_addr #1

; Function Attrs: nofree nounwind
declare i32 @__cxa_atexit(ptr, ptr, ptr) local_unnamed_addr #2

; Function Attrs: mustprogress nofree norecurse nosync nounwind willreturn memory(argmem: write) uwtable
define dso_local void @_ZN7CFGEdgeC2EPK9StatementS2_bb(ptr noundef nonnull writeonly align 8 captures(none) dereferenceable(26) initializes((0, 26)) %0, ptr noundef %1, ptr noundef %2, i1 noundef zeroext %3, i1 noundef zeroext %4) unnamed_addr #3 align 2 {
  %6 = zext i1 %3 to i8
  %7 = zext i1 %4 to i8
  store ptr getelementptr inbounds nuw inrange(-16, 16) (i8, ptr @_ZTV7CFGEdge, i64 16), ptr %0, align 8, !tbaa !4
  %8 = getelementptr inbounds nuw i8, ptr %0, i64 8
  store ptr %1, ptr %8, align 8, !tbaa !7
  %9 = getelementptr inbounds nuw i8, ptr %0, i64 16
  store ptr %2, ptr %9, align 8, !tbaa !13
  %10 = getelementptr inbounds nuw i8, ptr %0, i64 24
  store i8 %6, ptr %10, align 8, !tbaa !14
  %11 = getelementptr inbounds nuw i8, ptr %0, i64 25
  store i8 %7, ptr %11, align 1, !tbaa !15
  ret void
}

; Function Attrs: mustprogress nofree norecurse nosync nounwind willreturn memory(argmem: readwrite) uwtable
define dso_local void @_ZN7CFGEdgeC2ERKS_(ptr noundef nonnull writeonly align 8 captures(none) dereferenceable(26) initializes((0, 26)) %0, ptr noundef nonnull readonly align 8 captures(none) dereferenceable(26) %1) unnamed_addr #4 align 2 {
  store ptr getelementptr inbounds nuw inrange(-16, 16) (i8, ptr @_ZTV7CFGEdge, i64 16), ptr %0, align 8, !tbaa !4
  %3 = getelementptr inbounds nuw i8, ptr %0, i64 8
  %4 = getelementptr inbounds nuw i8, ptr %1, i64 8
  %5 = load ptr, ptr %4, align 8, !tbaa !7
  store ptr %5, ptr %3, align 8, !tbaa !7
  %6 = getelementptr inbounds nuw i8, ptr %0, i64 16
  %7 = getelementptr inbounds nuw i8, ptr %1, i64 16
  %8 = load ptr, ptr %7, align 8, !tbaa !13
  store ptr %8, ptr %6, align 8, !tbaa !13
  %9 = getelementptr inbounds nuw i8, ptr %0, i64 24
  %10 = getelementptr inbounds nuw i8, ptr %1, i64 24
  %11 = load i8, ptr %10, align 8, !tbaa !14, !range !16, !noundef !17
  store i8 %11, ptr %9, align 8, !tbaa !14
  %12 = getelementptr inbounds nuw i8, ptr %0, i64 25
  %13 = getelementptr inbounds nuw i8, ptr %1, i64 25
  %14 = load i8, ptr %13, align 1, !tbaa !15, !range !16, !noundef !17
  store i8 %14, ptr %12, align 1, !tbaa !15
  ret void
}

; Function Attrs: mustprogress nofree norecurse nosync nounwind willreturn memory(none) uwtable
define dso_local void @_ZN7CFGEdgeD2Ev(ptr nonnull readnone align 8 captures(none) %0) unnamed_addr #5 align 2 {
  ret void
}

; Function Attrs: mustprogress nounwind uwtable
define dso_local void @_ZN7CFGEdgeD0Ev(ptr noundef nonnull align 8 dereferenceable(26) %0) unnamed_addr #6 align 2 {
  tail call void @_ZdlPvm(ptr noundef nonnull %0, i64 noundef 32) #9
  ret void
}

; Function Attrs: nobuiltin nounwind
declare void @_ZdlPvm(ptr noundef, i64 noundef) local_unnamed_addr #7

; Function Attrs: uwtable
define internal void @_GLOBAL__sub_I_CFGEdge.cpp() #8 section ".text.startup" {
  tail call void @_ZNSt8ios_base4InitC1Ev(ptr noundef nonnull align 1 dereferenceable(1) @_ZStL8__ioinit)
  %1 = tail call i32 @__cxa_atexit(ptr nonnull @_ZNSt8ios_base4InitD1Ev, ptr nonnull @_ZStL8__ioinit, ptr nonnull @__dso_handle) #10
  ret void
}


!llvm.module.flags = !{!0, !1, !2, !3}

!0 = !{i32 1, !"wchar_size", i32 4}
!1 = !{i32 8, !"PIC Level", i32 2}
!2 = !{i32 7, !"PIE Level", i32 2}
!3 = !{i32 7, !"uwtable", i32 2}
!4 = !{!5, !5, i64 0}
!5 = !{!"vtable pointer", !6, i64 0}
!6 = !{!"Simple C++ TBAA"}
!7 = !{!8, !9, i64 8}
!8 = !{!"_ZTS7CFGEdge", !9, i64 8, !9, i64 16, !12, i64 24, !12, i64 25}
!9 = !{!"p1 _ZTS9Statement", !10, i64 0}
!10 = !{!"any pointer", !11, i64 0}
!11 = !{!"omnipotent char", !6, i64 0}
!12 = !{!"bool", !11, i64 0}
!13 = !{!8, !9, i64 16}
!14 = !{!8, !12, i64 24}
!15 = !{!8, !12, i64 25}
!16 = !{i8 0, i8 2}
!17 = !{}
